; Function Attrs: mustprogress nounwind uwtable
define noundef zeroext i1 @_ZNK3spv10spirvbin_t9isStripOpENS_2OpEj(ptr nocapture noundef nonnull readonly align 8 dereferenceable(473) %0, i32 noundef %1, i32 noundef %2) local_unnamed_addr #0 align 2 {
  %4 = alloca %"class.std::__cxx11::basic_string", align 8
  switch i32 %1, label %29 [
    i32 3, label %5
    i32 4, label %5
    i32 5, label %5
    i32 6, label %5
    i32 8, label %5
  ]

5:                                                ; preds = %3, %3, %3, %3, %3
  %6 = add i32 %2, 2
  call void @_ZNSt7__cxx1112basic_stringIcSt11char_traitsIcESaIcEEC1Ev(ptr noundef nonnull align 8 dereferenceable(32) %4) #24
  %7 = getelementptr inbounds i8, ptr %0, i64 8
  %8 = load ptr, ptr %7, align 8, !noalias !12
  %9 = zext i32 %6 to i64
  %10 = getelementptr inbounds i32, ptr %8, i64 %9
  call void @_ZNSt7__cxx1112basic_stringIcSt11char_traitsIcESaIcEE7reserveEm(ptr noundef nonnull align 8 dereferenceable(32) %4, i64 noundef 16) #24
  br label %11

11:                                               ; preds = %20, %5
  %.011.i = phi ptr [ %10, %5 ], [ %21, %20 ]
  %12 = load i32, ptr %.011.i, align 4
  br label %13

13:                                               ; preds = %15, %11
  %.013.i = phi i32 [ 0, %11 ], [ %19, %15 ]
  %.01012.i = phi i32 [ %12, %11 ], [ %18, %15 ]
  %sext.mask.i = and i32 %.01012.i, 255
  %14 = icmp eq i32 %sext.mask.i, 0
  br i1 %14, label %_ZNK3spv10spirvbin_t13literalStringB5cxx11Ej.exit, label %15

15:                                               ; preds = %13
  %16 = trunc i32 %.01012.i to i8
  %17 = call noundef nonnull align 8 dereferenceable(32) ptr @_ZNSt7__cxx1112basic_stringIcSt11char_traitsIcESaIcEEpLEc(ptr noundef nonnull align 8 dereferenceable(32) %4, i8 noundef signext %16) #24
  %18 = lshr i32 %.01012.i, 8
  %19 = add nuw nsw i32 %.013.i, 1
  %exitcond.not.i = icmp eq i32 %19, 4
  br i1 %exitcond.not.i, label %20, label %13, !llvm.loop !15

20:                                               ; preds = %15
  %21 = getelementptr inbounds i8, ptr %.011.i, i64 4
  br label %11, !llvm.loop !16

_ZNK3spv10spirvbin_t13literalStringB5cxx11Ej.exit: ; preds = %13
  %22 = getelementptr inbounds i8, ptr %0, i64 32
  %23 = load ptr, ptr %22, align 8
  %24 = getelementptr inbounds i8, ptr %0, i64 40
  %25 = load ptr, ptr %24, align 8
  %.not10 = icmp ult ptr %23, %25
  br i1 %.not10, label %.lr.ph, label %._crit_edge

.lr.ph:                                           ; preds = %_ZNK3spv10spirvbin_t13literalStringB5cxx11Ej.exit, %.lr.ph
  %.sroa.04.07 = phi ptr [ %27, %.lr.ph ], [ %23, %_ZNK3spv10spirvbin_t13literalStringB5cxx11Ej.exit ]
  %26 = call noundef i64 @_ZNKSt7__cxx1112basic_stringIcSt11char_traitsIcESaIcEE4findERKS4_m(ptr noundef nonnull align 8 dereferenceable(32) %4, ptr noundef nonnull align 8 dereferenceable(32) %.sroa.04.07, i64 noundef 0) #24
  %.not = icmp eq i64 %26, -1
  %27 = getelementptr inbounds i8, ptr %.sroa.04.07, i64 32
  %28 = load ptr, ptr %24, align 8
  %.not11 = icmp ult ptr %27, %28
  %or.cond = select i1 %.not, i1 %.not11, i1 false
  br i1 %or.cond, label %.lr.ph, label %._crit_edge, !llvm.loop !17

._crit_edge:                                      ; preds = %.lr.ph, %_ZNK3spv10spirvbin_t13literalStringB5cxx11Ej.exit
  %.lcssa = phi i1 [ true, %_ZNK3spv10spirvbin_t13literalStringB5cxx11Ej.exit ], [ %.not, %.lr.ph ]
  call void @_ZNSt7__cxx1112basic_stringIcSt11char_traitsIcESaIcEED1Ev(ptr noundef nonnull align 8 dereferenceable(32) %4) #24
  br label %29

29:                                               ; preds = %3, %._crit_edge
  %.1 = phi i1 [ %.lcssa, %._crit_edge ], [ false, %3 ]
  ret i1 %.1
}